target datalayout = "e-m:e-p270:32:32-p271:32:32-p272:64:64-i64:64-i128:128-f80:128-n8:16:32:64-S128"
target triple = "x86_64-pc-linux-gnu"

@.str.15 = private unnamed_addr constant [16 x i8] c"InitialHeapSize\00", align 1
@UseG1GC = external global i8, align 1
@.str.31 = private unnamed_addr constant [68 x i8] c"%s (%lu) must be less than or equal to aligned maximum value (%lu)\0A\00", align 1

; Function Attrs: mustprogress nounwind uwtable
define internal noundef i32 @_ZL19MaxSizeForAlignmentPKcmmb(ptr noundef %0, i64 noundef %1, i64 noundef %2, i1 noundef zeroext %3) #1 {
  %5 = alloca i32, align 4
  %6 = alloca ptr, align 8
  %7 = alloca i64, align 8
  %8 = alloca i64, align 8
  %9 = alloca i8, align 1
  %10 = alloca i64, align 8
  store ptr %0, ptr %6, align 8
  store i64 %1, ptr %7, align 8
  store i64 %2, ptr %8, align 8
  %11 = zext i1 %3 to i8
  store i8 %11, ptr %9, align 1
  %12 = load i64, ptr %8, align 8
  %13 = sub i64 -1, %12
  %14 = load i64, ptr %8, align 8
  %15 = sub i64 %14, 1
  %16 = xor i64 %15, -1
  %17 = and i64 %13, %16
  store i64 %17, ptr %10, align 8
  %18 = load i64, ptr %7, align 8
  %19 = load i64, ptr %10, align 8
  %20 = icmp ugt i64 %18, %19
  br i1 %20, label %21, label %27

21:                                               ; preds = %4
  %22 = load i8, ptr %9, align 1
  %23 = trunc i8 %22 to i1
  %24 = load ptr, ptr %6, align 8
  %25 = load i64, ptr %7, align 8
  %26 = load i64, ptr %10, align 8
  call void (i1, ptr, ...) @_ZN7JVMFlag10printErrorEbPKcz(i1 noundef zeroext %23, ptr noundef @.str.31, ptr noundef %24, i64 noundef %25, i64 noundef %26)
  store i32 6, ptr %5, align 4
  br label %28

27:                                               ; preds = %4
  store i32 0, ptr %5, align 4
  br label %28

28:                                               ; preds = %27, %21
  %29 = load i32, ptr %5, align 4
  ret i32 %29
}

; Function Attrs: mustprogress nounwind uwtable
define internal noundef i32 @_ZL23MaxSizeForHeapAlignmentPKcmb(ptr noundef %0, i64 noundef %1, i1 noundef zeroext %2) #1 {
  %4 = alloca ptr, align 8
  %5 = alloca i64, align 8
  %6 = alloca i8, align 1
  %7 = alloca i64, align 8
  store ptr %0, ptr %4, align 8
  store i64 %1, ptr %5, align 8
  %8 = zext i1 %2 to i8
  store i8 %8, ptr %6, align 1
  %9 = load i8, ptr @UseG1GC, align 1
  %10 = trunc i8 %9 to i1
  br i1 %10, label %11, label %13

11:                                               ; preds = %3
  %12 = call noundef i64 @_Z25MaxSizeForHeapAlignmentG1v()
  store i64 %12, ptr %7, align 8
  br label %15

13:                                               ; preds = %3
  %14 = call noundef i64 @_ZN11GCArguments22compute_heap_alignmentEv()
  store i64 %14, ptr %7, align 8
  br label %15

15:                                               ; preds = %13, %11
  %16 = load ptr, ptr %4, align 8
  %17 = load i64, ptr %5, align 8
  %18 = load i64, ptr %7, align 8
  %19 = load i8, ptr %6, align 1
  %20 = trunc i8 %19 to i1
  %21 = call noundef i32 @_ZL19MaxSizeForAlignmentPKcmmb(ptr noundef %16, i64 noundef %17, i64 noundef %18, i1 noundef zeroext %20)
  ret i32 %21
}

; Function Attrs: mustprogress nounwind uwtable
define hidden noundef i32 @_Z29InitialHeapSizeConstraintFuncmb(i64 noundef %0, i1 noundef zeroext %1) #1 {
  %3 = alloca i64, align 8
  %4 = alloca i8, align 1
  store i64 %0, ptr %3, align 8
  %5 = zext i1 %1 to i8
  store i8 %5, ptr %4, align 1
  %6 = load i64, ptr %3, align 8
  %7 = load i8, ptr %4, align 1
  %8 = trunc i8 %7 to i1
  %9 = call noundef i32 @_ZL23MaxSizeForHeapAlignmentPKcmb(ptr noundef @.str.15, i64 noundef %6, i1 noundef zeroext %8)
  ret i32 %9
}