; Function Attrs: mustprogress nounwind uwtable
define hidden noundef range(i32 0, 7) i32 @_Z29InitialHeapSizeConstraintFuncmb(i64 noundef %0, i1 noundef zeroext %1) local_unnamed_addr #0 {
  %3 = load i8, ptr @UseG1GC, align 1
  %4 = trunc i8 %3 to i1
  br i1 %4, label %5, label %7

5:                                                ; preds = %2
  %6 = tail call noundef i64 @_Z25MaxSizeForHeapAlignmentG1v() #4
  br label %9

7:                                                ; preds = %2
  %8 = tail call noundef i64 @_ZN11GCArguments22compute_heap_alignmentEv() #4
  br label %9

9:                                                ; preds = %7, %5
  %.0.i = phi i64 [ %6, %5 ], [ %8, %7 ]
  %10 = xor i64 %.0.i, -1
  %11 = sub i64 0, %.0.i
  %12 = and i64 %10, %11
  %13 = icmp ult i64 %12, %0
  br i1 %13, label %14, label %_ZL23MaxSizeForHeapAlignmentPKcmb.exit

14:                                               ; preds = %9
  tail call void (i1, ptr, ...) @_ZN7JVMFlag10printErrorEbPKcz(i1 noundef zeroext %1, ptr noundef nonnull @.str.31, ptr noundef nonnull @.str.15, i64 noundef %0, i64 noundef %12) #4
  br label %_ZL23MaxSizeForHeapAlignmentPKcmb.exit

_ZL23MaxSizeForHeapAlignmentPKcmb.exit:           ; preds = %9, %14
  %.0.i.i = phi i32 [ 6, %14 ], [ 0, %9 ]
  ret i32 %.0.i.i
}